target datalayout = "e-m:e-p270:32:32-p271:32:32-p272:64:64-i64:64-i128:128-f80:128-n8:16:32:64-S128"
target triple = "x86_64-pc-linux-gnu"

%struct.evthread_lock_callbacks = type { i32, i32, ptr, ptr, ptr, ptr }
%struct.ev_token_bucket = type { i64, i64, i32 }
%struct.ev_token_bucket_cfg = type { i64, i64, i64, i64, %struct.timeval, i32 }
%struct.timeval = type { i64, i64 }
%struct.bufferevent_private = type { %struct.bufferevent, ptr, i8, i16, i16, i16, i32, i32, %struct.event_callback, i32, i32, ptr, i64, i64, ptr, %union.anon.7, ptr }
%struct.bufferevent = type { ptr, ptr, %struct.event, %struct.event, ptr, ptr, %struct.event_watermark, %struct.event_watermark, ptr, ptr, ptr, ptr, %struct.timeval, %struct.timeval, i16 }
%struct.event = type { %struct.event_callback, %union.anon.0, i32, i16, i16, ptr, %union.anon.2, %struct.timeval }
%union.anon.0 = type { %struct.anon.1 }
%struct.anon.1 = type { ptr, ptr }
%union.anon.2 = type { %struct.anon.3 }
%struct.anon.3 = type { %struct.anon.4, %struct.timeval }
%struct.anon.4 = type { ptr, ptr }
%struct.event_watermark = type { i64, i64 }
%struct.event_callback = type { %struct.anon, i16, i8, i8, %union.anon, ptr }
%struct.anon = type { ptr, ptr }
%union.anon = type { ptr }
%union.anon.7 = type { %struct.sockaddr_in6 }
%struct.sockaddr_in6 = type { i16, i16, i32, %struct.in6_addr, i32 }
%struct.in6_addr = type { %union.anon.8 }
%union.anon.8 = type { [4 x i32] }
%struct.bufferevent_rate_limit = type { %struct.anon.9, ptr, %struct.ev_token_bucket, ptr, %struct.event }
%struct.anon.9 = type { ptr, ptr }

@evthread_lock_fns_ = external global %struct.evthread_lock_callbacks, align 8

; Function Attrs: nounwind uwtable
define hidden i32 @ev_token_bucket_update_(ptr noundef %0, ptr noundef %1, i32 noundef %2) #0 {
  %4 = alloca i32, align 4
  %5 = alloca ptr, align 8
  %6 = alloca ptr, align 8
  %7 = alloca i32, align 4
  %8 = alloca i32, align 4
  %9 = alloca i32, align 4
  store ptr %0, ptr %5, align 8
  store ptr %1, ptr %6, align 8
  store i32 %2, ptr %7, align 4
  call void @llvm.lifetime.start.p0(i64 4, ptr %8) #5
  %10 = load i32, ptr %7, align 4
  %11 = load ptr, ptr %5, align 8
  %12 = getelementptr inbounds nuw %struct.ev_token_bucket, ptr %11, i32 0, i32 2
  %13 = load i32, ptr %12, align 8
  %14 = sub i32 %10, %13
  store i32 %14, ptr %8, align 4
  %15 = load i32, ptr %8, align 4
  %16 = icmp eq i32 %15, 0
  br i1 %16, label %20, label %17

17:                                               ; preds = %3
  %18 = load i32, ptr %8, align 4
  %19 = icmp ugt i32 %18, 2147483647
  br i1 %19, label %20, label %21

20:                                               ; preds = %17, %3
  store i32 0, ptr %4, align 4
  store i32 1, ptr %9, align 4
  br label %89

21:                                               ; preds = %17
  %22 = load ptr, ptr %6, align 8
  %23 = getelementptr inbounds nuw %struct.ev_token_bucket_cfg, ptr %22, i32 0, i32 1
  %24 = load i64, ptr %23, align 8
  %25 = load ptr, ptr %5, align 8
  %26 = getelementptr inbounds nuw %struct.ev_token_bucket, ptr %25, i32 0, i32 0
  %27 = load i64, ptr %26, align 8
  %28 = sub i64 %24, %27
  %29 = load i32, ptr %8, align 4
  %30 = zext i32 %29 to i64
  %31 = udiv i64 %28, %30
  %32 = load ptr, ptr %6, align 8
  %33 = getelementptr inbounds nuw %struct.ev_token_bucket_cfg, ptr %32, i32 0, i32 0
  %34 = load i64, ptr %33, align 8
  %35 = icmp ult i64 %31, %34
  br i1 %35, label %36, label %42

36:                                               ; preds = %21
  %37 = load ptr, ptr %6, align 8
  %38 = getelementptr inbounds nuw %struct.ev_token_bucket_cfg, ptr %37, i32 0, i32 1
  %39 = load i64, ptr %38, align 8
  %40 = load ptr, ptr %5, align 8
  %41 = getelementptr inbounds nuw %struct.ev_token_bucket, ptr %40, i32 0, i32 0
  store i64 %39, ptr %41, align 8
  br label %53

42:                                               ; preds = %21
  %43 = load i32, ptr %8, align 4
  %44 = zext i32 %43 to i64
  %45 = load ptr, ptr %6, align 8
  %46 = getelementptr inbounds nuw %struct.ev_token_bucket_cfg, ptr %45, i32 0, i32 0
  %47 = load i64, ptr %46, align 8
  %48 = mul i64 %44, %47
  %49 = load ptr, ptr %5, align 8
  %50 = getelementptr inbounds nuw %struct.ev_token_bucket, ptr %49, i32 0, i32 0
  %51 = load i64, ptr %50, align 8
  %52 = add i64 %51, %48
  store i64 %52, ptr %50, align 8
  br label %53

53:                                               ; preds = %42, %36
  %54 = load ptr, ptr %6, align 8
  %55 = getelementptr inbounds nuw %struct.ev_token_bucket_cfg, ptr %54, i32 0, i32 3
  %56 = load i64, ptr %55, align 8
  %57 = load ptr, ptr %5, align 8
  %58 = getelementptr inbounds nuw %struct.ev_token_bucket, ptr %57, i32 0, i32 1
  %59 = load i64, ptr %58, align 8
  %60 = sub i64 %56, %59
  %61 = load i32, ptr %8, align 4
  %62 = zext i32 %61 to i64
  %63 = udiv i64 %60, %62
  %64 = load ptr, ptr %6, align 8
  %65 = getelementptr inbounds nuw %struct.ev_token_bucket_cfg, ptr %64, i32 0, i32 2
  %66 = load i64, ptr %65, align 8
  %67 = icmp ult i64 %63, %66
  br i1 %67, label %68, label %74

68:                                               ; preds = %53
  %69 = load ptr, ptr %6, align 8
  %70 = getelementptr inbounds nuw %struct.ev_token_bucket_cfg, ptr %69, i32 0, i32 3
  %71 = load i64, ptr %70, align 8
  %72 = load ptr, ptr %5, align 8
  %73 = getelementptr inbounds nuw %struct.ev_token_bucket, ptr %72, i32 0, i32 1
  store i64 %71, ptr %73, align 8
  br label %85

74:                                               ; preds = %53
  %75 = load i32, ptr %8, align 4
  %76 = zext i32 %75 to i64
  %77 = load ptr, ptr %6, align 8
  %78 = getelementptr inbounds nuw %struct.ev_token_bucket_cfg, ptr %77, i32 0, i32 2
  %79 = load i64, ptr %78, align 8
  %80 = mul i64 %76, %79
  %81 = load ptr, ptr %5, align 8
  %82 = getelementptr inbounds nuw %struct.ev_token_bucket, ptr %81, i32 0, i32 1
  %83 = load i64, ptr %82, align 8
  %84 = add i64 %83, %80
  store i64 %84, ptr %82, align 8
  br label %85

85:                                               ; preds = %74, %68
  %86 = load i32, ptr %7, align 4
  %87 = load ptr, ptr %5, align 8
  %88 = getelementptr inbounds nuw %struct.ev_token_bucket, ptr %87, i32 0, i32 2
  store i32 %86, ptr %88, align 8
  store i32 1, ptr %4, align 4
  store i32 1, ptr %9, align 4
  br label %89

89:                                               ; preds = %85, %20
  call void @llvm.lifetime.end.p0(i64 4, ptr %8) #5
  %90 = load i32, ptr %4, align 4
  ret i32 %90
}

; Function Attrs: nounwind uwtable
define hidden i32 @ev_token_bucket_get_tick_(ptr noundef %0, ptr noundef %1) #0 {
  %3 = alloca ptr, align 8
  %4 = alloca ptr, align 8
  %5 = alloca i64, align 8
  store ptr %0, ptr %3, align 8
  store ptr %1, ptr %4, align 8
  call void @llvm.lifetime.start.p0(i64 8, ptr %5) #5
  %6 = load ptr, ptr %3, align 8
  %7 = getelementptr inbounds nuw %struct.timeval, ptr %6, i32 0, i32 0
  %8 = load i64, ptr %7, align 8
  %9 = mul i64 %8, 1000
  %10 = load ptr, ptr %3, align 8
  %11 = getelementptr inbounds nuw %struct.timeval, ptr %10, i32 0, i32 1
  %12 = load i64, ptr %11, align 8
  %13 = sdiv i64 %12, 1000
  %14 = add i64 %9, %13
  store i64 %14, ptr %5, align 8
  %15 = load i64, ptr %5, align 8
  %16 = load ptr, ptr %4, align 8
  %17 = getelementptr inbounds nuw %struct.ev_token_bucket_cfg, ptr %16, i32 0, i32 5
  %18 = load i32, ptr %17, align 8
  %19 = zext i32 %18 to i64
  %20 = udiv i64 %15, %19
  %21 = trunc i64 %20 to i32
  call void @llvm.lifetime.end.p0(i64 8, ptr %5) #5
  ret i32 %21
}

; Function Attrs: nounwind uwtable
define internal void @bev_refill_callback_(i32 noundef %0, i16 noundef signext %1, ptr noundef %2) #0 {
  %4 = alloca i32, align 4
  %5 = alloca i16, align 2
  %6 = alloca ptr, align 8
  %7 = alloca i32, align 4
  %8 = alloca %struct.timeval, align 8
  %9 = alloca ptr, align 8
  %10 = alloca i32, align 4
  %11 = alloca ptr, align 8
  %12 = alloca ptr, align 8
  %13 = alloca i32, align 4
  %14 = alloca ptr, align 8
  store i32 %0, ptr %4, align 4
  store i16 %1, ptr %5, align 2
  store ptr %2, ptr %6, align 8
  call void @llvm.lifetime.start.p0(i64 4, ptr %7) #5
  call void @llvm.lifetime.start.p0(i64 16, ptr %8) #5
  call void @llvm.lifetime.start.p0(i64 8, ptr %9) #5
  %15 = load ptr, ptr %6, align 8
  store ptr %15, ptr %9, align 8
  call void @llvm.lifetime.start.p0(i64 4, ptr %10) #5
  store i32 0, ptr %10, align 4
  br label %16

16:                                               ; preds = %3
  call void @llvm.lifetime.start.p0(i64 8, ptr %11) #5
  %17 = load ptr, ptr %9, align 8
  %18 = getelementptr inbounds nuw %struct.bufferevent_private, ptr %17, i32 0, i32 0
  %19 = getelementptr inbounds i8, ptr %18, i64 0
  store ptr %19, ptr %11, align 8
  br label %20

20:                                               ; preds = %16
  %21 = load ptr, ptr %11, align 8
  %22 = getelementptr inbounds nuw %struct.bufferevent_private, ptr %21, i32 0, i32 11
  %23 = load ptr, ptr %22, align 8
  %24 = icmp ne ptr %23, null
  br i1 %24, label %25, label %31

25:                                               ; preds = %20
  %26 = load ptr, ptr getelementptr inbounds nuw (%struct.evthread_lock_callbacks, ptr @evthread_lock_fns_, i32 0, i32 4), align 8
  %27 = load ptr, ptr %11, align 8
  %28 = getelementptr inbounds nuw %struct.bufferevent_private, ptr %27, i32 0, i32 11
  %29 = load ptr, ptr %28, align 8
  %30 = call i32 %26(i32 noundef 0, ptr noundef %29)
  br label %31

31:                                               ; preds = %25, %20
  br label %32

32:                                               ; preds = %31
  br label %33

33:                                               ; preds = %32
  call void @llvm.lifetime.end.p0(i64 8, ptr %11) #5
  br label %34

34:                                               ; preds = %33
  br label %35

35:                                               ; preds = %34
  %36 = load ptr, ptr %9, align 8
  %37 = getelementptr inbounds nuw %struct.bufferevent_private, ptr %36, i32 0, i32 14
  %38 = load ptr, ptr %37, align 8
  %39 = icmp ne ptr %38, null
  br i1 %39, label %40, label %47

40:                                               ; preds = %35
  %41 = load ptr, ptr %9, align 8
  %42 = getelementptr inbounds nuw %struct.bufferevent_private, ptr %41, i32 0, i32 14
  %43 = load ptr, ptr %42, align 8
  %44 = getelementptr inbounds nuw %struct.bufferevent_rate_limit, ptr %43, i32 0, i32 3
  %45 = load ptr, ptr %44, align 8
  %46 = icmp ne ptr %45, null
  br i1 %46, label %68, label %47

47:                                               ; preds = %40, %35
  br label %48

48:                                               ; preds = %47
  call void @llvm.lifetime.start.p0(i64 8, ptr %12) #5
  %49 = load ptr, ptr %9, align 8
  %50 = getelementptr inbounds nuw %struct.bufferevent_private, ptr %49, i32 0, i32 0
  %51 = getelementptr inbounds i8, ptr %50, i64 0
  store ptr %51, ptr %12, align 8
  br label %52

52:                                               ; preds = %48
  %53 = load ptr, ptr %12, align 8
  %54 = getelementptr inbounds nuw %struct.bufferevent_private, ptr %53, i32 0, i32 11
  %55 = load ptr, ptr %54, align 8
  %56 = icmp ne ptr %55, null
  br i1 %56, label %57, label %63

57:                                               ; preds = %52
  %58 = load ptr, ptr getelementptr inbounds nuw (%struct.evthread_lock_callbacks, ptr @evthread_lock_fns_, i32 0, i32 5), align 8
  %59 = load ptr, ptr %12, align 8
  %60 = getelementptr inbounds nuw %struct.bufferevent_private, ptr %59, i32 0, i32 11
  %61 = load ptr, ptr %60, align 8
  %62 = call i32 %58(i32 noundef 0, ptr noundef %61)
  br label %63

63:                                               ; preds = %57, %52
  br label %64

64:                                               ; preds = %63
  br label %65

65:                                               ; preds = %64
  call void @llvm.lifetime.end.p0(i64 8, ptr %12) #5
  br label %66

66:                                               ; preds = %65
  br label %67

67:                                               ; preds = %66
  store i32 1, ptr %13, align 4
  br label %166

68:                                               ; preds = %40
  %69 = load ptr, ptr %9, align 8
  %70 = getelementptr inbounds nuw %struct.bufferevent_private, ptr %69, i32 0, i32 0
  %71 = getelementptr inbounds nuw %struct.bufferevent, ptr %70, i32 0, i32 0
  %72 = load ptr, ptr %71, align 8
  %73 = call i32 @event_base_gettimeofday_cached(ptr noundef %72, ptr noundef %8)
  %74 = load ptr, ptr %9, align 8
  %75 = getelementptr inbounds nuw %struct.bufferevent_private, ptr %74, i32 0, i32 14
  %76 = load ptr, ptr %75, align 8
  %77 = getelementptr inbounds nuw %struct.bufferevent_rate_limit, ptr %76, i32 0, i32 3
  %78 = load ptr, ptr %77, align 8
  %79 = call i32 @ev_token_bucket_get_tick_(ptr noundef %8, ptr noundef %78)
  store i32 %79, ptr %7, align 4
  %80 = load ptr, ptr %9, align 8
  %81 = getelementptr inbounds nuw %struct.bufferevent_private, ptr %80, i32 0, i32 14
  %82 = load ptr, ptr %81, align 8
  %83 = getelementptr inbounds nuw %struct.bufferevent_rate_limit, ptr %82, i32 0, i32 2
  %84 = load ptr, ptr %9, align 8
  %85 = getelementptr inbounds nuw %struct.bufferevent_private, ptr %84, i32 0, i32 14
  %86 = load ptr, ptr %85, align 8
  %87 = getelementptr inbounds nuw %struct.bufferevent_rate_limit, ptr %86, i32 0, i32 3
  %88 = load ptr, ptr %87, align 8
  %89 = load i32, ptr %7, align 4
  %90 = call i32 @ev_token_bucket_update_(ptr noundef %83, ptr noundef %88, i32 noundef %89)
  %91 = load ptr, ptr %9, align 8
  %92 = getelementptr inbounds nuw %struct.bufferevent_private, ptr %91, i32 0, i32 4
  %93 = load i16, ptr %92, align 4
  %94 = zext i16 %93 to i32
  %95 = and i32 %94, 2
  %96 = icmp ne i32 %95, 0
  br i1 %96, label %97, label %110

97:                                               ; preds = %68
  %98 = load ptr, ptr %9, align 8
  %99 = getelementptr inbounds nuw %struct.bufferevent_private, ptr %98, i32 0, i32 14
  %100 = load ptr, ptr %99, align 8
  %101 = getelementptr inbounds nuw %struct.bufferevent_rate_limit, ptr %100, i32 0, i32 2
  %102 = getelementptr inbounds nuw %struct.ev_token_bucket, ptr %101, i32 0, i32 0
  %103 = load i64, ptr %102, align 8
  %104 = icmp sgt i64 %103, 0
  br i1 %104, label %105, label %108

105:                                              ; preds = %97
  %106 = load ptr, ptr %9, align 8
  %107 = getelementptr inbounds nuw %struct.bufferevent_private, ptr %106, i32 0, i32 0
  call void @bufferevent_unsuspend_read_(ptr noundef %107, i16 noundef zeroext 2)
  br label %109

108:                                              ; preds = %97
  store i32 1, ptr %10, align 4
  br label %109

109:                                              ; preds = %108, %105
  br label %110

110:                                              ; preds = %109, %68
  %111 = load ptr, ptr %9, align 8
  %112 = getelementptr inbounds nuw %struct.bufferevent_private, ptr %111, i32 0, i32 5
  %113 = load i16, ptr %112, align 2
  %114 = zext i16 %113 to i32
  %115 = and i32 %114, 2
  %116 = icmp ne i32 %115, 0
  br i1 %116, label %117, label %130

117:                                              ; preds = %110
  %118 = load ptr, ptr %9, align 8
  %119 = getelementptr inbounds nuw %struct.bufferevent_private, ptr %118, i32 0, i32 14
  %120 = load ptr, ptr %119, align 8
  %121 = getelementptr inbounds nuw %struct.bufferevent_rate_limit, ptr %120, i32 0, i32 2
  %122 = getelementptr inbounds nuw %struct.ev_token_bucket, ptr %121, i32 0, i32 1
  %123 = load i64, ptr %122, align 8
  %124 = icmp sgt i64 %123, 0
  br i1 %124, label %125, label %128

125:                                              ; preds = %117
  %126 = load ptr, ptr %9, align 8
  %127 = getelementptr inbounds nuw %struct.bufferevent_private, ptr %126, i32 0, i32 0
  call void @bufferevent_unsuspend_write_(ptr noundef %127, i16 noundef zeroext 2)
  br label %129

128:                                              ; preds = %117
  store i32 1, ptr %10, align 4
  br label %129

129:                                              ; preds = %128, %125
  br label %130

130:                                              ; preds = %129, %110
  %131 = load i32, ptr %10, align 4
  %132 = icmp ne i32 %131, 0
  br i1 %132, label %133, label %145

133:                                              ; preds = %130
  %134 = load ptr, ptr %9, align 8
  %135 = getelementptr inbounds nuw %struct.bufferevent_private, ptr %134, i32 0, i32 14
  %136 = load ptr, ptr %135, align 8
  %137 = getelementptr inbounds nuw %struct.bufferevent_rate_limit, ptr %136, i32 0, i32 4
  %138 = load ptr, ptr %9, align 8
  %139 = getelementptr inbounds nuw %struct.bufferevent_private, ptr %138, i32 0, i32 14
  %140 = load ptr, ptr %139, align 8
  %141 = getelementptr inbounds nuw %struct.bufferevent_rate_limit, ptr %140, i32 0, i32 3
  %142 = load ptr, ptr %141, align 8
  %143 = getelementptr inbounds nuw %struct.ev_token_bucket_cfg, ptr %142, i32 0, i32 4
  %144 = call i32 @event_add(ptr noundef %137, ptr noundef %143)
  br label %145

145:                                              ; preds = %133, %130
  br label %146

146:                                              ; preds = %145
  call void @llvm.lifetime.start.p0(i64 8, ptr %14) #5
  %147 = load ptr, ptr %9, align 8
  %148 = getelementptr inbounds nuw %struct.bufferevent_private, ptr %147, i32 0, i32 0
  %149 = getelementptr inbounds i8, ptr %148, i64 0
  store ptr %149, ptr %14, align 8
  br label %150

150:                                              ; preds = %146
  %151 = load ptr, ptr %14, align 8
  %152 = getelementptr inbounds nuw %struct.bufferevent_private, ptr %151, i32 0, i32 11
  %153 = load ptr, ptr %152, align 8
  %154 = icmp ne ptr %153, null
  br i1 %154, label %155, label %161

155:                                              ; preds = %150
  %156 = load ptr, ptr getelementptr inbounds nuw (%struct.evthread_lock_callbacks, ptr @evthread_lock_fns_, i32 0, i32 5), align 8
  %157 = load ptr, ptr %14, align 8
  %158 = getelementptr inbounds nuw %struct.bufferevent_private, ptr %157, i32 0, i32 11
  %159 = load ptr, ptr %158, align 8
  %160 = call i32 %156(i32 noundef 0, ptr noundef %159)
  br label %161

161:                                              ; preds = %155, %150
  br label %162

162:                                              ; preds = %161
  br label %163

163:                                              ; preds = %162
  call void @llvm.lifetime.end.p0(i64 8, ptr %14) #5
  br label %164

164:                                              ; preds = %163
  br label %165

165:                                              ; preds = %164
  store i32 0, ptr %13, align 4
  br label %166

166:                                              ; preds = %165, %67
  call void @llvm.lifetime.end.p0(i64 4, ptr %10) #5
  call void @llvm.lifetime.end.p0(i64 8, ptr %9) #5
  call void @llvm.lifetime.end.p0(i64 16, ptr %8) #5
  call void @llvm.lifetime.end.p0(i64 4, ptr %7) #5
  %167 = load i32, ptr %13, align 4
  switch i32 %167, label %169 [
    i32 0, label %168
    i32 1, label %168
  ]

168:                                              ; preds = %166, %166
  ret void

169:                                              ; preds = %166
  unreachable
}