; Function Attrs: nounwind uwtable
define internal void @bev_refill_callback_(i32 %0, i16 signext %1, ptr noundef %2) #3 {
  %4 = alloca %struct.timeval, align 8
  call void @llvm.lifetime.start.p0(i64 16, ptr nonnull %4) #10
  %5 = getelementptr inbounds nuw i8, ptr %2, i64 448
  %6 = load ptr, ptr %5, align 8
  %.not = icmp eq ptr %6, null
  br i1 %.not, label %10, label %7

7:                                                ; preds = %3
  %8 = load ptr, ptr getelementptr inbounds nuw (i8, ptr @evthread_lock_fns_, i64 24), align 8
  %9 = tail call i32 %8(i32 noundef 0, ptr noundef nonnull %6) #10
  br label %10

10:                                               ; preds = %7, %3
  %11 = getelementptr inbounds nuw i8, ptr %2, i64 472
  %12 = load ptr, ptr %11, align 8
  %.not29 = icmp eq ptr %12, null
  br i1 %.not29, label %16, label %13

13:                                               ; preds = %10
  %14 = getelementptr inbounds nuw i8, ptr %12, i64 48
  %15 = load ptr, ptr %14, align 8
  %.not30 = icmp eq ptr %15, null
  br i1 %.not30, label %16, label %21

16:                                               ; preds = %10, %13
  %17 = load ptr, ptr %5, align 8
  %.not31 = icmp eq ptr %17, null
  br i1 %.not31, label %97, label %18

18:                                               ; preds = %16
  %19 = load ptr, ptr getelementptr inbounds nuw (i8, ptr @evthread_lock_fns_, i64 32), align 8
  %20 = tail call i32 %19(i32 noundef 0, ptr noundef nonnull %17) #10
  br label %97

21:                                               ; preds = %13
  %22 = load ptr, ptr %2, align 8
  %23 = call i32 @event_base_gettimeofday_cached(ptr noundef %22, ptr noundef nonnull %4) #10
  %24 = load ptr, ptr %11, align 8
  %25 = getelementptr inbounds nuw i8, ptr %24, i64 48
  %26 = load ptr, ptr %25, align 8
  %27 = load i64, ptr %4, align 8
  %28 = mul i64 %27, 1000
  %29 = getelementptr inbounds nuw i8, ptr %4, i64 8
  %30 = load i64, ptr %29, align 8
  %31 = sdiv i64 %30, 1000
  %32 = add i64 %31, %28
  %33 = getelementptr inbounds nuw i8, ptr %26, i64 48
  %34 = load i32, ptr %33, align 8
  %35 = zext i32 %34 to i64
  %36 = udiv i64 %32, %35
  %37 = trunc i64 %36 to i32
  %38 = getelementptr inbounds nuw i8, ptr %24, i64 40
  %39 = load i32, ptr %38, align 8
  %40 = sub i32 %37, %39
  %41 = icmp eq i32 %39, %37
  %42 = icmp slt i32 %40, 0
  %or.cond.i = or i1 %41, %42
  br i1 %or.cond.i, label %ev_token_bucket_update_.exit, label %43

43:                                               ; preds = %21
  %44 = getelementptr inbounds nuw i8, ptr %24, i64 24
  %45 = getelementptr inbounds nuw i8, ptr %26, i64 8
  %46 = load i64, ptr %45, align 8
  %47 = load i64, ptr %44, align 8
  %48 = sub i64 %46, %47
  %49 = zext nneg i32 %40 to i64
  %50 = udiv i64 %48, %49
  %51 = load i64, ptr %26, align 8
  %52 = icmp ult i64 %50, %51
  %53 = mul i64 %51, %49
  %54 = add i64 %53, %47
  %storemerge.i = select i1 %52, i64 %46, i64 %54
  store i64 %storemerge.i, ptr %44, align 8
  %55 = getelementptr inbounds nuw i8, ptr %26, i64 24
  %56 = load i64, ptr %55, align 8
  %57 = getelementptr inbounds nuw i8, ptr %24, i64 32
  %58 = load i64, ptr %57, align 8
  %59 = sub i64 %56, %58
  %60 = udiv i64 %59, %49
  %61 = getelementptr inbounds nuw i8, ptr %26, i64 16
  %62 = load i64, ptr %61, align 8
  %63 = icmp ult i64 %60, %62
  %64 = mul i64 %62, %49
  %65 = add i64 %64, %58
  %storemerge28.i = select i1 %63, i64 %56, i64 %65
  store i64 %storemerge28.i, ptr %57, align 8
  store i32 %37, ptr %38, align 8
  br label %ev_token_bucket_update_.exit

ev_token_bucket_update_.exit:                     ; preds = %21, %43
  %66 = getelementptr inbounds nuw i8, ptr %2, i64 388
  %67 = load i16, ptr %66, align 4
  %68 = and i16 %67, 2
  %.not32 = icmp eq i16 %68, 0
  br i1 %.not32, label %75, label %69

69:                                               ; preds = %ev_token_bucket_update_.exit
  %70 = load ptr, ptr %11, align 8
  %71 = getelementptr inbounds nuw i8, ptr %70, i64 24
  %72 = load i64, ptr %71, align 8
  %73 = icmp sgt i64 %72, 0
  br i1 %73, label %74, label %75

74:                                               ; preds = %69
  call void @bufferevent_unsuspend_read_(ptr noundef nonnull %2, i16 noundef zeroext 2) #10
  br label %75

75:                                               ; preds = %69, %74, %ev_token_bucket_update_.exit
  %.not34 = phi i1 [ true, %74 ], [ true, %ev_token_bucket_update_.exit ], [ false, %69 ]
  %76 = getelementptr inbounds nuw i8, ptr %2, i64 390
  %77 = load i16, ptr %76, align 2
  %78 = and i16 %77, 2
  %.not33 = icmp eq i16 %78, 0
  br i1 %.not33, label %85, label %79

79:                                               ; preds = %75
  %80 = load ptr, ptr %11, align 8
  %81 = getelementptr inbounds nuw i8, ptr %80, i64 32
  %82 = load i64, ptr %81, align 8
  %83 = icmp sgt i64 %82, 0
  br i1 %83, label %84, label %.thread

84:                                               ; preds = %79
  call void @bufferevent_unsuspend_write_(ptr noundef nonnull %2, i16 noundef zeroext 2) #10
  br label %85

85:                                               ; preds = %84, %75
  br i1 %.not34, label %92, label %..thread_crit_edge

..thread_crit_edge:                               ; preds = %85
  %.pre = load ptr, ptr %11, align 8
  br label %.thread

.thread:                                          ; preds = %..thread_crit_edge, %79
  %86 = phi ptr [ %.pre, %..thread_crit_edge ], [ %80, %79 ]
  %87 = getelementptr inbounds nuw i8, ptr %86, i64 56
  %88 = getelementptr inbounds nuw i8, ptr %86, i64 48
  %89 = load ptr, ptr %88, align 8
  %90 = getelementptr inbounds nuw i8, ptr %89, i64 32
  %91 = call i32 @event_add(ptr noundef nonnull %87, ptr noundef nonnull %90) #10
  br label %92

92:                                               ; preds = %85, %.thread
  %93 = load ptr, ptr %5, align 8
  %.not35 = icmp eq ptr %93, null
  br i1 %.not35, label %97, label %94

94:                                               ; preds = %92
  %95 = load ptr, ptr getelementptr inbounds nuw (i8, ptr @evthread_lock_fns_, i64 32), align 8
  %96 = call i32 %95(i32 noundef 0, ptr noundef nonnull %93) #10
  br label %97

97:                                               ; preds = %92, %94, %16, %18
  call void @llvm.lifetime.end.p0(i64 16, ptr nonnull %4) #10
  ret void
}